; Function Attrs: mustprogress uwtable
define void @_ZN6google8protobuf4util13FieldMaskUtil8ToStringB5cxx11ERKNS0_9FieldMaskE(ptr noalias sret(%"class.std::__cxx11::basic_string") align 8 %agg.result, ptr noundef nonnull align 8 dereferenceable(48) %mask) local_unnamed_addr #3 align 2 personality ptr @__gxx_personality_v0 {
entry:
  %0 = getelementptr inbounds nuw i8, ptr %mask, i64 16
  %1 = load ptr, ptr %0, align 8, !noalias !4
  %2 = ptrtoint ptr %1 to i64
  %and.i.i.i.i.i.i.i = and i64 %2, 1
  %cmp.i.i.i.i.i.i.i = icmp eq i64 %and.i.i.i.i.i.i.i, 0
  %sub.i.i.i.i.i.i.i.i = add i64 %2, -1
  %3 = inttoptr i64 %sub.i.i.i.i.i.i.i.i to ptr
  %elements.i.i.i.i.i.i = getelementptr inbounds nuw i8, ptr %3, i64 8
  %cond.i.i.i.i.i.i = select i1 %cmp.i.i.i.i.i.i.i, ptr %0, ptr %elements.i.i.i.i.i.i
  %current_size_.i.i.i.i.i.i = getelementptr inbounds nuw i8, ptr %mask, i64 24
  %4 = load i32, ptr %current_size_.i.i.i.i.i.i, align 8, !noalias !4
  %idx.ext.i.i.i.i = sext i32 %4 to i64
  %add.ptr.i.i.i.i = getelementptr inbounds ptr, ptr %cond.i.i.i.i.i.i, i64 %idx.ext.i.i.i.i
  tail call void @_ZN4absl12lts_2023080216strings_internal13JoinAlgorithmIN6google8protobuf8internal19RepeatedPtrIteratorIKNSt7__cxx1112basic_stringIcSt11char_traitsIcESaIcEEEEEvEESC_T_SF_St17basic_string_viewIcSA_ENS1_11NoFormatterE(ptr sret(%"class.std::__cxx11::basic_string") align 8 %agg.result, ptr nonnull %cond.i.i.i.i.i.i, ptr nonnull %add.ptr.i.i.i.i, i64 1, ptr nonnull @.str)
  ret void
}